target datalayout = "e-m:e-p270:32:32-p271:32:32-p272:64:64-i64:64-i128:128-f80:128-n8:16:32:64-S128"
target triple = "x86_64-pc-linux-gnu"

%"class.std::__cxx11::basic_string" = type { %"struct.std::__cxx11::basic_string<char>::_Alloc_hider", i64, %union.anon }
%"struct.std::__cxx11::basic_string<char>::_Alloc_hider" = type { ptr }
%union.anon = type { i64, [8 x i8] }
%class.cmLinkLineComputer = type <{ ptr, %class.cmStateDirectory, ptr, i8, i8, i8, i8, [4 x i8] }>
%class.cmStateDirectory = type { %"class.cmLinkedTree<cmStateDetail::BuildsystemDirectoryStateType>::iterator", %class.cmStateSnapshot }
%"class.cmLinkedTree<cmStateDetail::BuildsystemDirectoryStateType>::iterator" = type { ptr, i64 }
%class.cmStateSnapshot = type { ptr, %"class.cmLinkedTree<cmStateDetail::SnapshotDataType>::iterator" }
%"class.cmLinkedTree<cmStateDetail::SnapshotDataType>::iterator" = type { ptr, i64 }

; Function Attrs: mustprogress uwtable
define dso_local void @_ZN18cmLinkLineComputer26ConvertToOutputForExistingERKNSt7__cxx1112basic_stringIcSt11char_traitsIcESaIcEEE(ptr dead_on_unwind noalias writable sret(%"class.std::__cxx11::basic_string") align 8 %0, ptr noundef nonnull align 8 dereferenceable(60) %1, ptr noundef nonnull align 8 dereferenceable(32) %2) #7 align 2 {
  %4 = alloca ptr, align 8
  %5 = alloca ptr, align 8
  %6 = alloca ptr, align 8
  %7 = alloca i32, align 4
  store ptr %0, ptr %4, align 8
  store ptr %1, ptr %5, align 8
  store ptr %2, ptr %6, align 8
  %8 = load ptr, ptr %5, align 8
  store i32 0, ptr %7, align 4
  %9 = getelementptr inbounds %class.cmLinkLineComputer, ptr %8, i32 0, i32 3
  %10 = load i8, ptr %9, align 8
  %11 = trunc i8 %10 to i1
  br i1 %11, label %12, label %13

12:                                               ; preds = %3
  store i32 2, ptr %7, align 4
  br label %19

13:                                               ; preds = %3
  %14 = getelementptr inbounds %class.cmLinkLineComputer, ptr %8, i32 0, i32 5
  %15 = load i8, ptr %14, align 2
  %16 = trunc i8 %15 to i1
  br i1 %16, label %17, label %18

17:                                               ; preds = %13
  store i32 1, ptr %7, align 4
  br label %18

18:                                               ; preds = %17, %13
  br label %19

19:                                               ; preds = %18, %12
  %20 = getelementptr inbounds %class.cmLinkLineComputer, ptr %8, i32 0, i32 2
  %21 = load ptr, ptr %20, align 8
  %22 = load ptr, ptr %6, align 8
  %23 = load i32, ptr %7, align 4
  %24 = getelementptr inbounds %class.cmLinkLineComputer, ptr %8, i32 0, i32 4
  %25 = load i8, ptr %24, align 1
  %26 = trunc i8 %25 to i1
  call void @_ZNK17cmOutputConverter26ConvertToOutputForExistingERKNSt7__cxx1112basic_stringIcSt11char_traitsIcESaIcEEENS_12OutputFormatEb(ptr dead_on_unwind writable sret(%"class.std::__cxx11::basic_string") align 8 %0, ptr noundef nonnull align 8 dereferenceable(108) %21, ptr noundef nonnull align 8 dereferenceable(32) %22, i32 noundef %23, i1 noundef zeroext %26)
  ret void
}