; Function Attrs: mustprogress uwtable
define dso_local void @_ZN18cmLinkLineComputer26ConvertToOutputForExistingERKNSt7__cxx1112basic_stringIcSt11char_traitsIcESaIcEEE(ptr dead_on_unwind noalias writable sret(%"class.std::__cxx11::basic_string") align 8 %0, ptr nocapture noundef nonnull readonly align 8 dereferenceable(60) %1, ptr noundef nonnull align 8 dereferenceable(32) %2) local_unnamed_addr #9 align 2 {
  %4 = getelementptr inbounds i8, ptr %1, i64 56
  %5 = load i8, ptr %4, align 8
  %6 = and i8 %5, 1
  %.not = icmp eq i8 %6, 0
  %7 = getelementptr inbounds i8, ptr %1, i64 58
  %8 = load i8, ptr %7, align 2
  %9 = and i8 %8, 1
  %narrow = select i1 %.not, i8 %9, i8 2
  %.0 = zext nneg i8 %narrow to i32
  %10 = getelementptr inbounds i8, ptr %1, i64 48
  %11 = load ptr, ptr %10, align 8
  %12 = getelementptr inbounds i8, ptr %1, i64 57
  %13 = load i8, ptr %12, align 1
  %14 = and i8 %13, 1
  %15 = icmp ne i8 %14, 0
  tail call void @_ZNK17cmOutputConverter26ConvertToOutputForExistingERKNSt7__cxx1112basic_stringIcSt11char_traitsIcESaIcEEENS_12OutputFormatEb(ptr dead_on_unwind writable sret(%"class.std::__cxx11::basic_string") align 8 %0, ptr noundef nonnull align 8 dereferenceable(108) %11, ptr noundef nonnull align 8 dereferenceable(32) %2, i32 noundef %.0, i1 noundef zeroext %15)
  ret void
}